target datalayout = "e-m:e-p270:32:32-p271:32:32-p272:64:64-i64:64-i128:128-f80:128-n8:16:32:64-S128"
target triple = "x86_64-pc-linux-gnu"

; Function Attrs: nounwind uwtable
define hidden void @opj_read_bytes_LE(ptr noundef %0, ptr noundef %1, i32 noundef %2) #0 {
  %4 = alloca ptr, align 8
  %5 = alloca ptr, align 8
  %6 = alloca i32, align 4
  %7 = alloca ptr, align 8
  %8 = alloca i32, align 4
  store ptr %0, ptr %4, align 8, !tbaa !3
  store ptr %1, ptr %5, align 8, !tbaa !13
  store i32 %2, ptr %6, align 4, !tbaa !8
  call void @llvm.lifetime.start.p0(i64 8, ptr %7) #4
  %9 = load ptr, ptr %5, align 8, !tbaa !13
  %10 = load i32, ptr %6, align 4, !tbaa !8
  %11 = zext i32 %10 to i64
  %12 = getelementptr inbounds nuw i8, ptr %9, i64 %11
  %13 = getelementptr inbounds i8, ptr %12, i64 -1
  store ptr %13, ptr %7, align 8, !tbaa !3
  call void @llvm.lifetime.start.p0(i64 4, ptr %8) #4
  %14 = load ptr, ptr %5, align 8, !tbaa !13
  store i32 0, ptr %14, align 4, !tbaa !8
  store i32 0, ptr %8, align 4, !tbaa !8
  br label %15

15:                                               ; preds = %25, %3
  %16 = load i32, ptr %8, align 4, !tbaa !8
  %17 = load i32, ptr %6, align 4, !tbaa !8
  %18 = icmp ult i32 %16, %17
  br i1 %18, label %19, label %28

19:                                               ; preds = %15
  %20 = load ptr, ptr %4, align 8, !tbaa !3
  %21 = getelementptr inbounds nuw i8, ptr %20, i32 1
  store ptr %21, ptr %4, align 8, !tbaa !3
  %22 = load i8, ptr %20, align 1, !tbaa !10
  %23 = load ptr, ptr %7, align 8, !tbaa !3
  %24 = getelementptr inbounds i8, ptr %23, i32 -1
  store ptr %24, ptr %7, align 8, !tbaa !3
  store i8 %22, ptr %23, align 1, !tbaa !10
  br label %25

25:                                               ; preds = %19
  %26 = load i32, ptr %8, align 4, !tbaa !8
  %27 = add i32 %26, 1
  store i32 %27, ptr %8, align 4, !tbaa !8
  br label %15, !llvm.loop !15

28:                                               ; preds = %15
  call void @llvm.lifetime.end.p0(i64 4, ptr %8) #4
  call void @llvm.lifetime.end.p0(i64 8, ptr %7) #4
  ret void
}