; Function Attrs: nofree norecurse nosync nounwind memory(argmem: readwrite) uwtable
define hidden void @opj_read_bytes_LE(ptr noundef readonly captures(none) %0, ptr noundef writeonly captures(none) initializes((0, 4)) %1, i32 noundef %2) local_unnamed_addr #3 {
  store i32 0, ptr %1, align 4, !tbaa !3
  %.not = icmp eq i32 %2, 0
  br i1 %.not, label %._crit_edge, label %.lr.ph.preheader

.lr.ph.preheader:                                 ; preds = %3
  %4 = zext i32 %2 to i64
  %5 = getelementptr inbounds nuw i8, ptr %1, i64 %4
  br label %.lr.ph

.lr.ph:                                           ; preds = %.lr.ph.preheader, %.lr.ph
  %.011 = phi i32 [ %8, %.lr.ph ], [ 0, %.lr.ph.preheader ]
  %.pn10 = phi ptr [ %.07, %.lr.ph ], [ %5, %.lr.ph.preheader ]
  %.089 = phi ptr [ %6, %.lr.ph ], [ %0, %.lr.ph.preheader ]
  %.07 = getelementptr inbounds i8, ptr %.pn10, i64 -1
  %6 = getelementptr inbounds nuw i8, ptr %.089, i64 1
  %7 = load i8, ptr %.089, align 1, !tbaa !7
  store i8 %7, ptr %.07, align 1, !tbaa !7
  %8 = add nuw i32 %.011, 1
  %exitcond.not = icmp eq i32 %8, %2
  br i1 %exitcond.not, label %._crit_edge, label %.lr.ph, !llvm.loop !10

._crit_edge:                                      ; preds = %.lr.ph, %3
  ret void
}